target datalayout = "e-m:e-p270:32:32-p271:32:32-p272:64:64-i64:64-i128:128-f80:128-n8:16:32:64-S128"
target triple = "x86_64-pc-linux-gnu"

; Function Attrs: nounwind uwtable
define i32 @calcLog2(i64 noundef %0) #0 {
  %2 = alloca i64, align 8
  %3 = alloca i32, align 4
  store i64 %0, ptr %2, align 8, !tbaa !34
  call void @llvm.lifetime.start.p0(i64 4, ptr %3) #7
  store i32 0, ptr %3, align 4, !tbaa !9
  br label %4

4:                                                ; preds = %8, %1
  %5 = load i64, ptr %2, align 8, !tbaa !34
  %6 = lshr i64 %5, 1
  store i64 %6, ptr %2, align 8, !tbaa !34
  %7 = icmp ne i64 %6, 0
  br i1 %7, label %8, label %11

8:                                                ; preds = %4
  %9 = load i32, ptr %3, align 4, !tbaa !9
  %10 = add i32 %9, 1
  store i32 %10, ptr %3, align 4, !tbaa !9
  br label %4

11:                                               ; preds = %4
  %12 = load i32, ptr %3, align 4, !tbaa !9
  call void @llvm.lifetime.end.p0(i64 4, ptr %3) #7
  ret i32 %12
}