; Function Attrs: mustprogress nofree norecurse nosync nounwind willreturn memory(none) uwtable
define range(i32 0, 64) i32 @calcLog2(i64 noundef %0) local_unnamed_addr #4 {
._crit_edge:
  %.not5 = icmp ult i64 %0, 2
  %1 = tail call range(i64 0, 65) i64 @llvm.ctlz.i64(i64 %0, i1 true)
  %2 = trunc nuw nsw i64 %1 to i32
  %3 = xor i32 %2, 63
  %.0.lcssa = select i1 %.not5, i32 0, i32 %3
  ret i32 %.0.lcssa
}